(dp0
S'show_imports'
p1
I0
sS'prj_name'
p2
S''
p3
sS'docformat'
p4
S'epytext'
p5
sS'inheritance'
p6
S'grouped'
p7
sS'help'
p8
NsS'modules'
p9
(S'/home/miker/codeDevelopment/projects/teamforge/hiveRepos/hive/trunk/ilm-client/resetTimer_v1.0/hiveReset.py'
p10
tp11
sS'private'
p12
I1
sS'prj_url'
p13
NsS'introspect_or_parse'
p14
S'both'
p15
sS'frames'
p16
I1
sS'css'
p17
S'default'
p18
sS'target'
p19
S'html'
p20
s.